; ModuleID = 'source-C-CXX/59/1289.c'
source_filename = "source-C-CXX/59/1289.c"
target datalayout = "e-m:e-p270:32:32-p271:32:32-p272:64:64-i64:64-f80:128-n8:16:32:64-S128"
target triple = "x86_64-pc-linux-gnu"

@.str = private unnamed_addr constant [3 x i8] c"%d\00", align 1
@.str.1 = private unnamed_addr constant [7 x i8] c"%d %d\0A\00", align 1
@.str.2 = private unnamed_addr constant [6 x i8] c"empty\00", align 1

; Function Attrs: nofree nounwind sspstrong uwtable
define dso_local i32 @main() local_unnamed_addr #0 {
  %1 = alloca i32, align 4
  %2 = bitcast i32* %1 to i8*
  call void @llvm.lifetime.start.p0i8(i64 4, i8* nonnull %2) #4
  %3 = call i32 (i8*, ...) @__isoc99_scanf(i8* getelementptr inbounds ([3 x i8], [3 x i8]* @.str, i64 0, i64 0), i32* nonnull %1)
  %4 = load i32, i32* %1, align 4, !tbaa !5
  %5 = icmp sgt i32 %4, 4
  br i1 %5, label %6, label %39

6:                                                ; preds = %0, %34
  %7 = phi i32 [ %35, %34 ], [ 3, %0 ]
  %8 = sitofp i32 %7 to double
  %9 = call double @sqrt(double %8) #4
  %10 = fcmp ult double %9, 2.000000e+00
  br i1 %10, label %19, label %14

11:                                               ; preds = %14
  %12 = sitofp i32 %18 to double
  %13 = fcmp ult double %9, %12
  br i1 %13, label %19, label %14, !llvm.loop !9

14:                                               ; preds = %6, %11
  %15 = phi i32 [ %18, %11 ], [ 2, %6 ]
  %16 = urem i32 %7, %15
  %17 = icmp eq i32 %16, 0
  %18 = add nuw nsw i32 %15, 1
  br i1 %17, label %34, label %11

19:                                               ; preds = %11, %6
  %20 = add nuw nsw i32 %7, 2
  %21 = sitofp i32 %20 to double
  %22 = call double @sqrt(double %21) #4
  %23 = fcmp ult double %22, 2.000000e+00
  br i1 %23, label %32, label %27

24:                                               ; preds = %27
  %25 = sitofp i32 %31 to double
  %26 = fcmp ult double %22, %25
  br i1 %26, label %32, label %27, !llvm.loop !11

27:                                               ; preds = %19, %24
  %28 = phi i32 [ %31, %24 ], [ 2, %19 ]
  %29 = urem i32 %20, %28
  %30 = icmp eq i32 %29, 0
  %31 = add nuw nsw i32 %28, 1
  br i1 %30, label %34, label %24

32:                                               ; preds = %24, %19
  %33 = call i32 (i8*, ...) @printf(i8* nonnull dereferenceable(1) getelementptr inbounds ([7 x i8], [7 x i8]* @.str.1, i64 0, i64 0), i32 %7, i32 %20)
  br label %34

34:                                               ; preds = %14, %27, %32
  %35 = add nuw nsw i32 %7, 1
  %36 = load i32, i32* %1, align 4, !tbaa !5
  %37 = add nsw i32 %36, -2
  %38 = icmp slt i32 %7, %37
  br i1 %38, label %6, label %41, !llvm.loop !12

39:                                               ; preds = %0
  %40 = call i32 (i8*, ...) @printf(i8* nonnull dereferenceable(1) getelementptr inbounds ([6 x i8], [6 x i8]* @.str.2, i64 0, i64 0))
  br label %41

41:                                               ; preds = %34, %39
  call void @llvm.lifetime.end.p0i8(i64 4, i8* nonnull %2) #4
  ret i32 0
}

; Function Attrs: argmemonly mustprogress nofree nosync nounwind willreturn
declare void @llvm.lifetime.start.p0i8(i64 immarg, i8* nocapture) #1

; Function Attrs: nofree nounwind
declare noundef i32 @__isoc99_scanf(i8* nocapture noundef readonly, ...) local_unnamed_addr #2

; Function Attrs: mustprogress nofree nounwind willreturn
declare double @sqrt(double) local_unnamed_addr #3

; Function Attrs: nofree nounwind
declare noundef i32 @printf(i8* nocapture noundef readonly, ...) local_unnamed_addr #2

; Function Attrs: argmemonly mustprogress nofree nosync nounwind willreturn
declare void @llvm.lifetime.end.p0i8(i64 immarg, i8* nocapture) #1


!llvm.module.flags = !{!0, !1, !2, !3}
!llvm.ident = !{!4}

!0 = !{i32 1, !"wchar_size", i32 4}
!1 = !{i32 7, !"PIC Level", i32 2}
!2 = !{i32 7, !"PIE Level", i32 2}
!3 = !{i32 7, !"uwtable", i32 1}
!4 = !{!"clang version 13.0.0"}
!5 = !{!6, !6, i64 0}
!6 = !{!"int", !7, i64 0}
!7 = !{!"omnipotent char", !8, i64 0}
!8 = !{!"Simple C/C++ TBAA"}
!9 = distinct !{!9, !10}
!10 = !{!"llvm.loop.mustprogress"}
!11 = distinct !{!11, !10}
!12 = distinct !{!12, !10}
